target datalayout = "e-m:e-p270:32:32-p271:32:32-p272:64:64-i64:64-i128:128-f80:128-n8:16:32:64-S128"
target triple = "x86_64-pc-linux-gnu"

%struct.redisReply = type { i32, i64, double, i64, ptr, [4 x i8], i64, ptr }

@stderr = external global ptr, align 8
@context = internal global ptr null, align 8
@.str.81 = private unnamed_addr constant [12 x i8] c"\0AI/O error\0A\00", align 1
@.str.363 = private unnamed_addr constant [7 x i8] c"DBSIZE\00", align 1
@.str.686 = private unnamed_addr constant [31 x i8] c"Couldn't determine DBSIZE: %s\0A\00", align 1
@.str.687 = private unnamed_addr constant [35 x i8] c"Non INTEGER response from DBSIZE!\0A\00", align 1

; Function Attrs: nounwind uwtable
define internal i32 @getDbSize() #0 {
  %1 = alloca ptr, align 8
  %2 = alloca i32, align 4
  call void @llvm.lifetime.start.p0(i64 8, ptr %1) #15
  call void @llvm.lifetime.start.p0(i64 4, ptr %2) #15
  %3 = load ptr, ptr @context, align 8, !tbaa !180
  %4 = call ptr (ptr, ptr, ...) @redisCommand(ptr noundef %3, ptr noundef @.str.363)
  store ptr %4, ptr %1, align 8, !tbaa !46
  %5 = load ptr, ptr %1, align 8, !tbaa !46
  %6 = icmp eq ptr %5, null
  br i1 %6, label %7, label %10

7:                                                ; preds = %0
  %8 = load ptr, ptr @stderr, align 8, !tbaa !12
  %9 = call i32 (ptr, ptr, ...) @fprintf(ptr noundef %8, ptr noundef @.str.81) #15
  call void @exit(i32 noundef 1) #20
  unreachable

10:                                               ; preds = %0
  %11 = load ptr, ptr %1, align 8, !tbaa !46
  %12 = getelementptr inbounds nuw %struct.redisReply, ptr %11, i32 0, i32 0
  %13 = load i32, ptr %12, align 8, !tbaa !68
  %14 = icmp eq i32 %13, 6
  br i1 %14, label %15, label %21

15:                                               ; preds = %10
  %16 = load ptr, ptr @stderr, align 8, !tbaa !12
  %17 = load ptr, ptr %1, align 8, !tbaa !46
  %18 = getelementptr inbounds nuw %struct.redisReply, ptr %17, i32 0, i32 4
  %19 = load ptr, ptr %18, align 8, !tbaa !54
  %20 = call i32 (ptr, ptr, ...) @fprintf(ptr noundef %16, ptr noundef @.str.686, ptr noundef %19) #15
  call void @exit(i32 noundef 1) #20
  unreachable

21:                                               ; preds = %10
  %22 = load ptr, ptr %1, align 8, !tbaa !46
  %23 = getelementptr inbounds nuw %struct.redisReply, ptr %22, i32 0, i32 0
  %24 = load i32, ptr %23, align 8, !tbaa !68
  %25 = icmp ne i32 %24, 3
  br i1 %25, label %26, label %29

26:                                               ; preds = %21
  %27 = load ptr, ptr @stderr, align 8, !tbaa !12
  %28 = call i32 (ptr, ptr, ...) @fprintf(ptr noundef %27, ptr noundef @.str.687) #15
  call void @exit(i32 noundef 1) #20
  unreachable

29:                                               ; preds = %21
  br label %30

30:                                               ; preds = %29
  br label %31

31:                                               ; preds = %30
  %32 = load ptr, ptr %1, align 8, !tbaa !46
  %33 = getelementptr inbounds nuw %struct.redisReply, ptr %32, i32 0, i32 1
  %34 = load i64, ptr %33, align 8, !tbaa !191
  %35 = trunc i64 %34 to i32
  store i32 %35, ptr %2, align 4, !tbaa !10
  %36 = load ptr, ptr %1, align 8, !tbaa !46
  call void @freeReplyObject(ptr noundef %36)
  %37 = load i32, ptr %2, align 4, !tbaa !10
  call void @llvm.lifetime.end.p0(i64 4, ptr %2) #15
  call void @llvm.lifetime.end.p0(i64 8, ptr %1) #15
  ret i32 %37
}