; Function Attrs: nounwind uwtable
define internal fastcc i32 @getDbSize() unnamed_addr #0 {
  %1 = load ptr, ptr @context, align 8, !tbaa !205
  %2 = tail call ptr (ptr, ptr, ...) @redisCommand(ptr noundef %1, ptr noundef nonnull @.str.363) #33
  %3 = icmp eq ptr %2, null
  br i1 %3, label %4, label %7

4:                                                ; preds = %0
  %5 = load ptr, ptr @stderr, align 8, !tbaa !5
  %6 = tail call i64 @fwrite(ptr nonnull @.str.81, i64 11, i64 1, ptr %5) #34
  tail call void @exit(i32 noundef 1) #40
  unreachable

7:                                                ; preds = %0
  %8 = load i32, ptr %2, align 8, !tbaa !56
  switch i32 %8, label %14 [
    i32 6, label %9
    i32 3, label %17
  ]

9:                                                ; preds = %7
  %10 = load ptr, ptr @stderr, align 8, !tbaa !5
  %11 = getelementptr inbounds nuw i8, ptr %2, i64 32
  %12 = load ptr, ptr %11, align 8, !tbaa !36
  %13 = tail call i32 (ptr, ptr, ...) @fprintf(ptr noundef %10, ptr noundef nonnull @.str.686, ptr noundef %12) #39
  tail call void @exit(i32 noundef 1) #40
  unreachable

14:                                               ; preds = %7
  %15 = load ptr, ptr @stderr, align 8, !tbaa !5
  %16 = tail call i64 @fwrite(ptr nonnull @.str.687, i64 34, i64 1, ptr %15) #34
  tail call void @exit(i32 noundef 1) #40
  unreachable

17:                                               ; preds = %7
  %18 = getelementptr inbounds nuw i8, ptr %2, i64 8
  %19 = load i64, ptr %18, align 8, !tbaa !167
  %20 = trunc i64 %19 to i32
  tail call void @freeReplyObject(ptr noundef nonnull %2) #33
  ret i32 %20
}